; Function Attrs: mustprogress uwtable
define void @_ZN17grpc_event_engine12experimental18ThreadyEventEngine3RunEN4absl12lts_2024072212AnyInvocableIFvvEEE(ptr nonnull readnone align 8 captures(none) %0, ptr noundef %1) unnamed_addr #3 align 2 personality ptr @__gxx_personality_v0 {
  %3 = alloca %"class.absl::lts_20240722::AnyInvocable", align 16
  %4 = getelementptr inbounds nuw i8, ptr %1, i64 16
  %5 = load ptr, ptr %4, align 16, !tbaa !3
  call void %5(i1 noundef zeroext false, ptr noundef nonnull align 16 dereferenceable(32) %1, ptr noundef nonnull align 16 dereferenceable(32) %3) #26
  %6 = load ptr, ptr %4, align 16, !tbaa !3
  %7 = getelementptr inbounds nuw i8, ptr %3, i64 16
  store ptr %6, ptr %7, align 16, !tbaa !3
  %8 = getelementptr inbounds nuw i8, ptr %1, i64 24
  %9 = load ptr, ptr %8, align 8, !tbaa !8
  %10 = getelementptr inbounds nuw i8, ptr %3, i64 24
  store ptr %9, ptr %10, align 8, !tbaa !8
  store ptr @_ZN4absl12lts_2024072222internal_any_invocable12EmptyManagerENS1_14FunctionToCallEPNS1_15TypeErasedStateES4_, ptr %4, align 16, !tbaa !3
  store ptr null, ptr %8, align 8, !tbaa !8
  invoke void @_ZN17grpc_event_engine12experimental18ThreadyEventEngine14AsynchronouslyEN4absl12lts_2024072212AnyInvocableIFvvEEE(ptr nonnull align 8 poison, ptr noundef nonnull %3)
          to label %11 unwind label %13

11:                                               ; preds = %2
  %12 = load ptr, ptr %7, align 16, !tbaa !3
  call void %12(i1 noundef zeroext true, ptr noundef nonnull align 16 dereferenceable(32) %3, ptr noundef nonnull align 16 dereferenceable(32) %3) #26
  ret void

13:                                               ; preds = %2
  %14 = landingpad { ptr, i32 }
          cleanup
  %15 = load ptr, ptr %7, align 16, !tbaa !3
  call void %15(i1 noundef zeroext true, ptr noundef nonnull align 16 dereferenceable(32) %3, ptr noundef nonnull align 16 dereferenceable(32) %3) #26
  resume { ptr, i32 } %14
}